target datalayout = "e-m:e-p270:32:32-p271:32:32-p272:64:64-i64:64-i128:128-f80:128-n8:16:32:64-S128"
target triple = "x86_64-pc-linux-gnu"

%struct.prov_aes_ocb_ctx_st = type { %struct.prov_cipher_ctx_st, %union.anon.0, %union.anon.1, %struct.ocb128_context, i32, i8, i64, i64, i64, [16 x i8], [16 x i8], [16 x i8] }
%struct.prov_cipher_ctx_st = type { [16 x i8], [16 x i8], [16 x i8], ptr, %union.anon, i32, i64, i64, i64, i64, i32, i8, i32, ptr, i32, i64, i32, i64, i32, ptr, ptr, ptr }
%union.anon = type { ptr }
%union.anon.0 = type { double, [240 x i8] }
%union.anon.1 = type { double, [240 x i8] }
%struct.ocb128_context = type { ptr, ptr, ptr, ptr, ptr, i64, i64, %union.OCB_BLOCK, %union.OCB_BLOCK, ptr, %struct.anon }
%union.OCB_BLOCK = type { [2 x i64] }
%struct.anon = type { i64, i64, %union.OCB_BLOCK, %union.OCB_BLOCK, %union.OCB_BLOCK, %union.OCB_BLOCK }
%struct.ossl_param_st = type { ptr, i32, ptr, i64, i64 }

@.str = private unnamed_addr constant [62 x i8] c"../openssl/providers/implementations/ciphers/cipher_aes_ocb.c\00", align 1
@.str.1 = private unnamed_addr constant [6 x i8] c"ivlen\00", align 1
@__func__.aes_ocb_get_ctx_params = private unnamed_addr constant [23 x i8] c"aes_ocb_get_ctx_params\00", align 1
@.str.2 = private unnamed_addr constant [7 x i8] c"keylen\00", align 1
@.str.3 = private unnamed_addr constant [7 x i8] c"taglen\00", align 1
@.str.4 = private unnamed_addr constant [3 x i8] c"iv\00", align 1
@.str.5 = private unnamed_addr constant [11 x i8] c"updated-iv\00", align 1
@.str.6 = private unnamed_addr constant [4 x i8] c"tag\00", align 1

; Function Attrs: nounwind uwtable
define internal i32 @aes_ocb_get_ctx_params(ptr noundef %0, ptr noundef %1) #0 {
  %3 = alloca i32, align 4
  %4 = alloca ptr, align 8
  %5 = alloca ptr, align 8
  %6 = alloca ptr, align 8
  %7 = alloca ptr, align 8
  %8 = alloca i32, align 4
  store ptr %0, ptr %4, align 8, !tbaa !3
  store ptr %1, ptr %5, align 8, !tbaa !11
  call void @llvm.lifetime.start.p0(i64 8, ptr %6) #5
  %9 = load ptr, ptr %4, align 8, !tbaa !3
  store ptr %9, ptr %6, align 8, !tbaa !15
  call void @llvm.lifetime.start.p0(i64 8, ptr %7) #5
  %10 = load ptr, ptr %5, align 8, !tbaa !11
  %11 = call ptr @OSSL_PARAM_locate(ptr noundef %10, ptr noundef @.str.1)
  store ptr %11, ptr %7, align 8, !tbaa !11
  %12 = load ptr, ptr %7, align 8, !tbaa !11
  %13 = icmp ne ptr %12, null
  br i1 %13, label %14, label %23

14:                                               ; preds = %2
  %15 = load ptr, ptr %7, align 8, !tbaa !11
  %16 = load ptr, ptr %6, align 8, !tbaa !15
  %17 = getelementptr inbounds nuw %struct.prov_aes_ocb_ctx_st, ptr %16, i32 0, i32 0
  %18 = getelementptr inbounds nuw %struct.prov_cipher_ctx_st, ptr %17, i32 0, i32 7
  %19 = load i64, ptr %18, align 8, !tbaa !35
  %20 = call i32 @OSSL_PARAM_set_size_t(ptr noundef %15, i64 noundef %19)
  %21 = icmp ne i32 %20, 0
  br i1 %21, label %23, label %22

22:                                               ; preds = %14
  call void @ERR_new()
  call void @ERR_set_debug(ptr noundef @.str, i32 noundef 424, ptr noundef @__func__.aes_ocb_get_ctx_params)
  call void (i32, i32, ptr, ...) @ERR_set_error(i32 noundef 57, i32 noundef 104, ptr noundef null)
  store i32 0, ptr %3, align 4
  store i32 1, ptr %8, align 4
  br label %171

23:                                               ; preds = %14, %2
  %24 = load ptr, ptr %5, align 8, !tbaa !11
  %25 = call ptr @OSSL_PARAM_locate(ptr noundef %24, ptr noundef @.str.2)
  store ptr %25, ptr %7, align 8, !tbaa !11
  %26 = load ptr, ptr %7, align 8, !tbaa !11
  %27 = icmp ne ptr %26, null
  br i1 %27, label %28, label %37

28:                                               ; preds = %23
  %29 = load ptr, ptr %7, align 8, !tbaa !11
  %30 = load ptr, ptr %6, align 8, !tbaa !15
  %31 = getelementptr inbounds nuw %struct.prov_aes_ocb_ctx_st, ptr %30, i32 0, i32 0
  %32 = getelementptr inbounds nuw %struct.prov_cipher_ctx_st, ptr %31, i32 0, i32 6
  %33 = load i64, ptr %32, align 8, !tbaa !36
  %34 = call i32 @OSSL_PARAM_set_size_t(ptr noundef %29, i64 noundef %33)
  %35 = icmp ne i32 %34, 0
  br i1 %35, label %37, label %36

36:                                               ; preds = %28
  call void @ERR_new()
  call void @ERR_set_debug(ptr noundef @.str, i32 noundef 429, ptr noundef @__func__.aes_ocb_get_ctx_params)
  call void (i32, i32, ptr, ...) @ERR_set_error(i32 noundef 57, i32 noundef 104, ptr noundef null)
  store i32 0, ptr %3, align 4
  store i32 1, ptr %8, align 4
  br label %171

37:                                               ; preds = %28, %23
  %38 = load ptr, ptr %5, align 8, !tbaa !11
  %39 = call ptr @OSSL_PARAM_locate(ptr noundef %38, ptr noundef @.str.3)
  store ptr %39, ptr %7, align 8, !tbaa !11
  %40 = load ptr, ptr %7, align 8, !tbaa !11
  %41 = icmp ne ptr %40, null
  br i1 %41, label %42, label %51

42:                                               ; preds = %37
  %43 = load ptr, ptr %7, align 8, !tbaa !11
  %44 = load ptr, ptr %6, align 8, !tbaa !15
  %45 = getelementptr inbounds nuw %struct.prov_aes_ocb_ctx_st, ptr %44, i32 0, i32 6
  %46 = load i64, ptr %45, align 8, !tbaa !27
  %47 = call i32 @OSSL_PARAM_set_size_t(ptr noundef %43, i64 noundef %46)
  %48 = icmp ne i32 %47, 0
  br i1 %48, label %50, label %49

49:                                               ; preds = %42
  call void @ERR_new()
  call void @ERR_set_debug(ptr noundef @.str, i32 noundef 435, ptr noundef @__func__.aes_ocb_get_ctx_params)
  call void (i32, i32, ptr, ...) @ERR_set_error(i32 noundef 57, i32 noundef 104, ptr noundef null)
  store i32 0, ptr %3, align 4
  store i32 1, ptr %8, align 4
  br label %171

50:                                               ; preds = %42
  br label %51

51:                                               ; preds = %50, %37
  %52 = load ptr, ptr %5, align 8, !tbaa !11
  %53 = call ptr @OSSL_PARAM_locate(ptr noundef %52, ptr noundef @.str.4)
  store ptr %53, ptr %7, align 8, !tbaa !11
  %54 = load ptr, ptr %7, align 8, !tbaa !11
  %55 = icmp ne ptr %54, null
  br i1 %55, label %56, label %91

56:                                               ; preds = %51
  %57 = load ptr, ptr %6, align 8, !tbaa !15
  %58 = getelementptr inbounds nuw %struct.prov_aes_ocb_ctx_st, ptr %57, i32 0, i32 0
  %59 = getelementptr inbounds nuw %struct.prov_cipher_ctx_st, ptr %58, i32 0, i32 7
  %60 = load i64, ptr %59, align 8, !tbaa !35
  %61 = load ptr, ptr %7, align 8, !tbaa !11
  %62 = getelementptr inbounds nuw %struct.ossl_param_st, ptr %61, i32 0, i32 3
  %63 = load i64, ptr %62, align 8, !tbaa !37
  %64 = icmp ugt i64 %60, %63
  br i1 %64, label %65, label %66

65:                                               ; preds = %56
  call void @ERR_new()
  call void @ERR_set_debug(ptr noundef @.str, i32 noundef 443, ptr noundef @__func__.aes_ocb_get_ctx_params)
  call void (i32, i32, ptr, ...) @ERR_set_error(i32 noundef 57, i32 noundef 109, ptr noundef null)
  store i32 0, ptr %3, align 4
  store i32 1, ptr %8, align 4
  br label %171

66:                                               ; preds = %56
  %67 = load ptr, ptr %7, align 8, !tbaa !11
  %68 = load ptr, ptr %6, align 8, !tbaa !15
  %69 = getelementptr inbounds nuw %struct.prov_aes_ocb_ctx_st, ptr %68, i32 0, i32 0
  %70 = getelementptr inbounds nuw %struct.prov_cipher_ctx_st, ptr %69, i32 0, i32 0
  %71 = getelementptr inbounds [16 x i8], ptr %70, i64 0, i64 0
  %72 = load ptr, ptr %6, align 8, !tbaa !15
  %73 = getelementptr inbounds nuw %struct.prov_aes_ocb_ctx_st, ptr %72, i32 0, i32 0
  %74 = getelementptr inbounds nuw %struct.prov_cipher_ctx_st, ptr %73, i32 0, i32 7
  %75 = load i64, ptr %74, align 8, !tbaa !35
  %76 = call i32 @OSSL_PARAM_set_octet_string(ptr noundef %67, ptr noundef %71, i64 noundef %75)
  %77 = icmp ne i32 %76, 0
  br i1 %77, label %90, label %78

78:                                               ; preds = %66
  %79 = load ptr, ptr %7, align 8, !tbaa !11
  %80 = load ptr, ptr %6, align 8, !tbaa !15
  %81 = getelementptr inbounds nuw %struct.prov_aes_ocb_ctx_st, ptr %80, i32 0, i32 0
  %82 = getelementptr inbounds nuw %struct.prov_cipher_ctx_st, ptr %81, i32 0, i32 0
  %83 = load ptr, ptr %6, align 8, !tbaa !15
  %84 = getelementptr inbounds nuw %struct.prov_aes_ocb_ctx_st, ptr %83, i32 0, i32 0
  %85 = getelementptr inbounds nuw %struct.prov_cipher_ctx_st, ptr %84, i32 0, i32 7
  %86 = load i64, ptr %85, align 8, !tbaa !35
  %87 = call i32 @OSSL_PARAM_set_octet_ptr(ptr noundef %79, ptr noundef %82, i64 noundef %86)
  %88 = icmp ne i32 %87, 0
  br i1 %88, label %90, label %89

89:                                               ; preds = %78
  call void @ERR_new()
  call void @ERR_set_debug(ptr noundef @.str, i32 noundef 448, ptr noundef @__func__.aes_ocb_get_ctx_params)
  call void (i32, i32, ptr, ...) @ERR_set_error(i32 noundef 57, i32 noundef 104, ptr noundef null)
  store i32 0, ptr %3, align 4
  store i32 1, ptr %8, align 4
  br label %171

90:                                               ; preds = %78, %66
  br label %91

91:                                               ; preds = %90, %51
  %92 = load ptr, ptr %5, align 8, !tbaa !11
  %93 = call ptr @OSSL_PARAM_locate(ptr noundef %92, ptr noundef @.str.5)
  store ptr %93, ptr %7, align 8, !tbaa !11
  %94 = load ptr, ptr %7, align 8, !tbaa !11
  %95 = icmp ne ptr %94, null
  br i1 %95, label %96, label %131

96:                                               ; preds = %91
  %97 = load ptr, ptr %6, align 8, !tbaa !15
  %98 = getelementptr inbounds nuw %struct.prov_aes_ocb_ctx_st, ptr %97, i32 0, i32 0
  %99 = getelementptr inbounds nuw %struct.prov_cipher_ctx_st, ptr %98, i32 0, i32 7
  %100 = load i64, ptr %99, align 8, !tbaa !35
  %101 = load ptr, ptr %7, align 8, !tbaa !11
  %102 = getelementptr inbounds nuw %struct.ossl_param_st, ptr %101, i32 0, i32 3
  %103 = load i64, ptr %102, align 8, !tbaa !37
  %104 = icmp ugt i64 %100, %103
  br i1 %104, label %105, label %106

105:                                              ; preds = %96
  call void @ERR_new()
  call void @ERR_set_debug(ptr noundef @.str, i32 noundef 455, ptr noundef @__func__.aes_ocb_get_ctx_params)
  call void (i32, i32, ptr, ...) @ERR_set_error(i32 noundef 57, i32 noundef 109, ptr noundef null)
  store i32 0, ptr %3, align 4
  store i32 1, ptr %8, align 4
  br label %171

106:                                              ; preds = %96
  %107 = load ptr, ptr %7, align 8, !tbaa !11
  %108 = load ptr, ptr %6, align 8, !tbaa !15
  %109 = getelementptr inbounds nuw %struct.prov_aes_ocb_ctx_st, ptr %108, i32 0, i32 0
  %110 = getelementptr inbounds nuw %struct.prov_cipher_ctx_st, ptr %109, i32 0, i32 2
  %111 = getelementptr inbounds [16 x i8], ptr %110, i64 0, i64 0
  %112 = load ptr, ptr %6, align 8, !tbaa !15
  %113 = getelementptr inbounds nuw %struct.prov_aes_ocb_ctx_st, ptr %112, i32 0, i32 0
  %114 = getelementptr inbounds nuw %struct.prov_cipher_ctx_st, ptr %113, i32 0, i32 7
  %115 = load i64, ptr %114, align 8, !tbaa !35
  %116 = call i32 @OSSL_PARAM_set_octet_string(ptr noundef %107, ptr noundef %111, i64 noundef %115)
  %117 = icmp ne i32 %116, 0
  br i1 %117, label %130, label %118

118:                                              ; preds = %106
  %119 = load ptr, ptr %7, align 8, !tbaa !11
  %120 = load ptr, ptr %6, align 8, !tbaa !15
  %121 = getelementptr inbounds nuw %struct.prov_aes_ocb_ctx_st, ptr %120, i32 0, i32 0
  %122 = getelementptr inbounds nuw %struct.prov_cipher_ctx_st, ptr %121, i32 0, i32 2
  %123 = load ptr, ptr %6, align 8, !tbaa !15
  %124 = getelementptr inbounds nuw %struct.prov_aes_ocb_ctx_st, ptr %123, i32 0, i32 0
  %125 = getelementptr inbounds nuw %struct.prov_cipher_ctx_st, ptr %124, i32 0, i32 7
  %126 = load i64, ptr %125, align 8, !tbaa !35
  %127 = call i32 @OSSL_PARAM_set_octet_ptr(ptr noundef %119, ptr noundef %122, i64 noundef %126)
  %128 = icmp ne i32 %127, 0
  br i1 %128, label %130, label %129

129:                                              ; preds = %118
  call void @ERR_new()
  call void @ERR_set_debug(ptr noundef @.str, i32 noundef 460, ptr noundef @__func__.aes_ocb_get_ctx_params)
  call void (i32, i32, ptr, ...) @ERR_set_error(i32 noundef 57, i32 noundef 104, ptr noundef null)
  store i32 0, ptr %3, align 4
  store i32 1, ptr %8, align 4
  br label %171

130:                                              ; preds = %118, %106
  br label %131

131:                                              ; preds = %130, %91
  %132 = load ptr, ptr %5, align 8, !tbaa !11
  %133 = call ptr @OSSL_PARAM_locate(ptr noundef %132, ptr noundef @.str.6)
  store ptr %133, ptr %7, align 8, !tbaa !11
  %134 = load ptr, ptr %7, align 8, !tbaa !11
  %135 = icmp ne ptr %134, null
  br i1 %135, label %136, label %170

136:                                              ; preds = %131
  %137 = load ptr, ptr %7, align 8, !tbaa !11
  %138 = getelementptr inbounds nuw %struct.ossl_param_st, ptr %137, i32 0, i32 1
  %139 = load i32, ptr %138, align 8, !tbaa !39
  %140 = icmp ne i32 %139, 5
  br i1 %140, label %141, label %142

141:                                              ; preds = %136
  call void @ERR_new()
  call void @ERR_set_debug(ptr noundef @.str, i32 noundef 467, ptr noundef @__func__.aes_ocb_get_ctx_params)
  call void (i32, i32, ptr, ...) @ERR_set_error(i32 noundef 57, i32 noundef 103, ptr noundef null)
  store i32 0, ptr %3, align 4
  store i32 1, ptr %8, align 4
  br label %171

142:                                              ; preds = %136
  %143 = load ptr, ptr %6, align 8, !tbaa !15
  %144 = getelementptr inbounds nuw %struct.prov_aes_ocb_ctx_st, ptr %143, i32 0, i32 0
  %145 = getelementptr inbounds nuw %struct.prov_cipher_ctx_st, ptr %144, i32 0, i32 11
  %146 = load i8, ptr %145, align 4
  %147 = lshr i8 %146, 1
  %148 = and i8 %147, 1
  %149 = zext i8 %148 to i32
  %150 = icmp ne i32 %149, 0
  br i1 %150, label %151, label %159

151:                                              ; preds = %142
  %152 = load ptr, ptr %7, align 8, !tbaa !11
  %153 = getelementptr inbounds nuw %struct.ossl_param_st, ptr %152, i32 0, i32 3
  %154 = load i64, ptr %153, align 8, !tbaa !37
  %155 = load ptr, ptr %6, align 8, !tbaa !15
  %156 = getelementptr inbounds nuw %struct.prov_aes_ocb_ctx_st, ptr %155, i32 0, i32 6
  %157 = load i64, ptr %156, align 8, !tbaa !27
  %158 = icmp ne i64 %154, %157
  br i1 %158, label %159, label %160

159:                                              ; preds = %151, %142
  call void @ERR_new()
  call void @ERR_set_debug(ptr noundef @.str, i32 noundef 471, ptr noundef @__func__.aes_ocb_get_ctx_params)
  call void (i32, i32, ptr, ...) @ERR_set_error(i32 noundef 57, i32 noundef 118, ptr noundef null)
  store i32 0, ptr %3, align 4
  store i32 1, ptr %8, align 4
  br label %171

160:                                              ; preds = %151
  %161 = load ptr, ptr %7, align 8, !tbaa !11
  %162 = getelementptr inbounds nuw %struct.ossl_param_st, ptr %161, i32 0, i32 2
  %163 = load ptr, ptr %162, align 8, !tbaa !40
  %164 = load ptr, ptr %6, align 8, !tbaa !15
  %165 = getelementptr inbounds nuw %struct.prov_aes_ocb_ctx_st, ptr %164, i32 0, i32 9
  %166 = getelementptr inbounds [16 x i8], ptr %165, i64 0, i64 0
  %167 = load ptr, ptr %6, align 8, !tbaa !15
  %168 = getelementptr inbounds nuw %struct.prov_aes_ocb_ctx_st, ptr %167, i32 0, i32 6
  %169 = load i64, ptr %168, align 8, !tbaa !27
  call void @llvm.memcpy.p0.p0.i64(ptr align 1 %163, ptr align 8 %166, i64 %169, i1 false)
  br label %170

170:                                              ; preds = %160, %131
  store i32 1, ptr %3, align 4
  store i32 1, ptr %8, align 4
  br label %171

171:                                              ; preds = %170, %159, %141, %129, %105, %89, %65, %49, %36, %22
  call void @llvm.lifetime.end.p0(i64 8, ptr %7) #5
  call void @llvm.lifetime.end.p0(i64 8, ptr %6) #5
  %172 = load i32, ptr %3, align 4
  ret i32 %172
}