; Function Attrs: nounwind uwtable
define internal range(i32 0, 2) i32 @aes_ocb_get_ctx_params(ptr noundef %0, ptr noundef %1) #0 {
  %3 = tail call ptr @OSSL_PARAM_locate(ptr noundef %1, ptr noundef nonnull @.str.1) #7
  %.not = icmp eq ptr %3, null
  br i1 %.not, label %9, label %4

4:                                                ; preds = %2
  %5 = getelementptr inbounds nuw i8, ptr %0, i64 80
  %6 = load i64, ptr %5, align 8, !tbaa !18
  %7 = tail call i32 @OSSL_PARAM_set_size_t(ptr noundef nonnull %3, i64 noundef %6) #7
  %.not51 = icmp eq i32 %7, 0
  br i1 %.not51, label %8, label %9

8:                                                ; preds = %4
  tail call void @ERR_new() #7
  tail call void @ERR_set_debug(ptr noundef nonnull @.str, i32 noundef 424, ptr noundef nonnull @__func__.aes_ocb_get_ctx_params) #7
  tail call void (i32, i32, ptr, ...) @ERR_set_error(i32 noundef 57, i32 noundef 104, ptr noundef null) #7
  br label %74

9:                                                ; preds = %4, %2
  %10 = tail call ptr @OSSL_PARAM_locate(ptr noundef %1, ptr noundef nonnull @.str.2) #7
  %.not52 = icmp eq ptr %10, null
  br i1 %.not52, label %16, label %11

11:                                               ; preds = %9
  %12 = getelementptr inbounds nuw i8, ptr %0, i64 72
  %13 = load i64, ptr %12, align 8, !tbaa !30
  %14 = tail call i32 @OSSL_PARAM_set_size_t(ptr noundef nonnull %10, i64 noundef %13) #7
  %.not53 = icmp eq i32 %14, 0
  br i1 %.not53, label %15, label %16

15:                                               ; preds = %11
  tail call void @ERR_new() #7
  tail call void @ERR_set_debug(ptr noundef nonnull @.str, i32 noundef 429, ptr noundef nonnull @__func__.aes_ocb_get_ctx_params) #7
  tail call void (i32, i32, ptr, ...) @ERR_set_error(i32 noundef 57, i32 noundef 104, ptr noundef null) #7
  br label %74

16:                                               ; preds = %11, %9
  %17 = tail call ptr @OSSL_PARAM_locate(ptr noundef %1, ptr noundef nonnull @.str.3) #7
  %.not54 = icmp eq ptr %17, null
  br i1 %.not54, label %23, label %18

18:                                               ; preds = %16
  %19 = getelementptr inbounds nuw i8, ptr %0, i64 872
  %20 = load i64, ptr %19, align 8, !tbaa !3
  %21 = tail call i32 @OSSL_PARAM_set_size_t(ptr noundef nonnull %17, i64 noundef %20) #7
  %.not55 = icmp eq i32 %21, 0
  br i1 %.not55, label %22, label %23

22:                                               ; preds = %18
  tail call void @ERR_new() #7
  tail call void @ERR_set_debug(ptr noundef nonnull @.str, i32 noundef 435, ptr noundef nonnull @__func__.aes_ocb_get_ctx_params) #7
  tail call void (i32, i32, ptr, ...) @ERR_set_error(i32 noundef 57, i32 noundef 104, ptr noundef null) #7
  br label %74

23:                                               ; preds = %18, %16
  %24 = tail call ptr @OSSL_PARAM_locate(ptr noundef %1, ptr noundef nonnull @.str.4) #7
  %.not56 = icmp eq ptr %24, null
  br i1 %.not56, label %38, label %25

25:                                               ; preds = %23
  %26 = getelementptr inbounds nuw i8, ptr %0, i64 80
  %27 = load i64, ptr %26, align 8, !tbaa !18
  %28 = getelementptr inbounds nuw i8, ptr %24, i64 24
  %29 = load i64, ptr %28, align 8, !tbaa !31
  %30 = icmp ugt i64 %27, %29
  br i1 %30, label %31, label %32

31:                                               ; preds = %25
  tail call void @ERR_new() #7
  tail call void @ERR_set_debug(ptr noundef nonnull @.str, i32 noundef 443, ptr noundef nonnull @__func__.aes_ocb_get_ctx_params) #7
  tail call void (i32, i32, ptr, ...) @ERR_set_error(i32 noundef 57, i32 noundef 109, ptr noundef null) #7
  br label %74

32:                                               ; preds = %25
  %33 = tail call i32 @OSSL_PARAM_set_octet_string(ptr noundef nonnull %24, ptr noundef nonnull %0, i64 noundef %27) #7
  %.not57 = icmp eq i32 %33, 0
  br i1 %.not57, label %34, label %38

34:                                               ; preds = %32
  %35 = load i64, ptr %26, align 8, !tbaa !18
  %36 = tail call i32 @OSSL_PARAM_set_octet_ptr(ptr noundef nonnull %24, ptr noundef nonnull %0, i64 noundef %35) #7
  %.not58 = icmp eq i32 %36, 0
  br i1 %.not58, label %37, label %38

37:                                               ; preds = %34
  tail call void @ERR_new() #7
  tail call void @ERR_set_debug(ptr noundef nonnull @.str, i32 noundef 448, ptr noundef nonnull @__func__.aes_ocb_get_ctx_params) #7
  tail call void (i32, i32, ptr, ...) @ERR_set_error(i32 noundef 57, i32 noundef 104, ptr noundef null) #7
  br label %74

38:                                               ; preds = %32, %34, %23
  %39 = tail call ptr @OSSL_PARAM_locate(ptr noundef %1, ptr noundef nonnull @.str.5) #7
  %.not59 = icmp eq ptr %39, null
  br i1 %.not59, label %54, label %40

40:                                               ; preds = %38
  %41 = getelementptr inbounds nuw i8, ptr %0, i64 80
  %42 = load i64, ptr %41, align 8, !tbaa !18
  %43 = getelementptr inbounds nuw i8, ptr %39, i64 24
  %44 = load i64, ptr %43, align 8, !tbaa !31
  %45 = icmp ugt i64 %42, %44
  br i1 %45, label %46, label %47

46:                                               ; preds = %40
  tail call void @ERR_new() #7
  tail call void @ERR_set_debug(ptr noundef nonnull @.str, i32 noundef 455, ptr noundef nonnull @__func__.aes_ocb_get_ctx_params) #7
  tail call void (i32, i32, ptr, ...) @ERR_set_error(i32 noundef 57, i32 noundef 109, ptr noundef null) #7
  br label %74

47:                                               ; preds = %40
  %48 = getelementptr inbounds nuw i8, ptr %0, i64 32
  %49 = tail call i32 @OSSL_PARAM_set_octet_string(ptr noundef nonnull %39, ptr noundef nonnull %48, i64 noundef %42) #7
  %.not60 = icmp eq i32 %49, 0
  br i1 %.not60, label %50, label %54

50:                                               ; preds = %47
  %51 = load i64, ptr %41, align 8, !tbaa !18
  %52 = tail call i32 @OSSL_PARAM_set_octet_ptr(ptr noundef nonnull %39, ptr noundef nonnull %48, i64 noundef %51) #7
  %.not61 = icmp eq i32 %52, 0
  br i1 %.not61, label %53, label %54

53:                                               ; preds = %50
  tail call void @ERR_new() #7
  tail call void @ERR_set_debug(ptr noundef nonnull @.str, i32 noundef 460, ptr noundef nonnull @__func__.aes_ocb_get_ctx_params) #7
  tail call void (i32, i32, ptr, ...) @ERR_set_error(i32 noundef 57, i32 noundef 104, ptr noundef null) #7
  br label %74

54:                                               ; preds = %47, %50, %38
  %55 = tail call ptr @OSSL_PARAM_locate(ptr noundef %1, ptr noundef nonnull @.str.6) #7
  %.not62 = icmp eq ptr %55, null
  br i1 %.not62, label %74, label %56

56:                                               ; preds = %54
  %57 = getelementptr inbounds nuw i8, ptr %55, i64 8
  %58 = load i32, ptr %57, align 8, !tbaa !33
  %.not63 = icmp eq i32 %58, 5
  br i1 %.not63, label %60, label %59

59:                                               ; preds = %56
  tail call void @ERR_new() #7
  tail call void @ERR_set_debug(ptr noundef nonnull @.str, i32 noundef 467, ptr noundef nonnull @__func__.aes_ocb_get_ctx_params) #7
  tail call void (i32, i32, ptr, ...) @ERR_set_error(i32 noundef 57, i32 noundef 103, ptr noundef null) #7
  br label %74

60:                                               ; preds = %56
  %61 = getelementptr inbounds nuw i8, ptr %0, i64 108
  %62 = load i8, ptr %61, align 4
  %63 = and i8 %62, 2
  %.not64 = icmp eq i8 %63, 0
  br i1 %.not64, label %69, label %64

64:                                               ; preds = %60
  %65 = getelementptr inbounds nuw i8, ptr %55, i64 24
  %66 = load i64, ptr %65, align 8, !tbaa !31
  %67 = getelementptr inbounds nuw i8, ptr %0, i64 872
  %68 = load i64, ptr %67, align 8, !tbaa !3
  %.not65 = icmp eq i64 %66, %68
  br i1 %.not65, label %70, label %69

69:                                               ; preds = %64, %60
  tail call void @ERR_new() #7
  tail call void @ERR_set_debug(ptr noundef nonnull @.str, i32 noundef 471, ptr noundef nonnull @__func__.aes_ocb_get_ctx_params) #7
  tail call void (i32, i32, ptr, ...) @ERR_set_error(i32 noundef 57, i32 noundef 118, ptr noundef null) #7
  br label %74

70:                                               ; preds = %64
  %71 = getelementptr inbounds nuw i8, ptr %55, i64 16
  %72 = load ptr, ptr %71, align 8, !tbaa !34
  %73 = getelementptr inbounds nuw i8, ptr %0, i64 896
  tail call void @llvm.memcpy.p0.p0.i64(ptr align 1 %72, ptr nonnull align 8 %73, i64 %66, i1 false)
  br label %74

74:                                               ; preds = %54, %70, %69, %59, %53, %46, %37, %31, %22, %15, %8
  %.0 = phi i32 [ 0, %31 ], [ 0, %46 ], [ 0, %59 ], [ 0, %69 ], [ 0, %53 ], [ 0, %37 ], [ 0, %22 ], [ 0, %15 ], [ 0, %8 ], [ 1, %70 ], [ 1, %54 ]
  ret i32 %.0
}